; Function Attrs: mustprogress nofree norecurse nounwind willreturn memory(readwrite, inaccessiblemem: none) uwtable
define hidden void @_ZN8reslimit3popEv(ptr noundef nonnull align 8 captures(none) dereferenceable(40) %0) local_unnamed_addr #9 align 2 {
  %2 = getelementptr inbounds nuw i8, ptr %0, i64 8
  %3 = load i64, ptr %2, align 8, !tbaa !23
  %4 = getelementptr inbounds nuw i8, ptr %0, i64 16
  %5 = load i64, ptr %4, align 8, !tbaa !24
  %6 = icmp ugt i64 %3, %5
  br i1 %6, label %7, label %8

7:                                                ; preds = %1
  store i64 %5, ptr %2, align 8, !tbaa !23
  br label %8

8:                                                ; preds = %7, %1
  %9 = getelementptr inbounds nuw i8, ptr %0, i64 24
  %10 = load ptr, ptr %9, align 8, !tbaa !27
  %11 = icmp eq ptr %10, null
  br i1 %11, label %._ZN6vectorImLb0EjE4backEv.exit_crit_edge, label %12

._ZN6vectorImLb0EjE4backEv.exit_crit_edge:        ; preds = %8
  %.pre = load i32, ptr inttoptr (i64 -4 to ptr), align 4, !tbaa !28
  %.pre1 = add i32 %.pre, -1
  br label %_ZN6vectorImLb0EjE4backEv.exit

12:                                               ; preds = %8
  %13 = getelementptr inbounds i8, ptr %10, i64 -4
  %14 = load i32, ptr %13, align 4, !tbaa !28
  %15 = add i32 %14, -1
  %16 = zext i32 %15 to i64
  br label %_ZN6vectorImLb0EjE4backEv.exit

_ZN6vectorImLb0EjE4backEv.exit:                   ; preds = %._ZN6vectorImLb0EjE4backEv.exit_crit_edge, %12
  %.pre-phi = phi i32 [ %.pre1, %._ZN6vectorImLb0EjE4backEv.exit_crit_edge ], [ %15, %12 ]
  %.0.i.i = phi i64 [ 4294967295, %._ZN6vectorImLb0EjE4backEv.exit_crit_edge ], [ %16, %12 ]
  %17 = getelementptr inbounds nuw i64, ptr %10, i64 %.0.i.i
  %18 = load i64, ptr %17, align 8, !tbaa !29
  store i64 %18, ptr %4, align 8, !tbaa !24
  %19 = getelementptr inbounds i8, ptr %10, i64 -4
  store i32 %.pre-phi, ptr %19, align 4, !tbaa !28
  store atomic i32 0, ptr %0 seq_cst, align 8
  ret void
}